ccopy_reg
_reconstructor
p0
(cclasses
Admin
p1
c__builtin__
object
p2
Ntp3
Rp4
(dp5
S'id'
p6
I1
sS'name'
p7
S'anuj'
p8
sb.ccopy_reg
_reconstructor
p0
(cclasses
Admin
p1
c__builtin__
object
p2
Ntp3
Rp4
(dp5
S'id'
p6
I2
sS'name'
p7
S'anuj'
p8
sb.ccopy_reg
_reconstructor
p0
(cclasses
Admin
p1
c__builtin__
object
p2
Ntp3
Rp4
(dp5
S'id'
p6
I6
sS'name'
p7
S'ADSAD'
p8
sb.