(dp0
S'anuj'
p1
ccopy_reg
_reconstructor
p2
(cclasses
Cart
p3
c__builtin__
object
p4
Ntp5
Rp6
(dp7
S'total'
p8
F12.0
sS'products'
p9
(lp10
g2
(cclasses
Product
p11
g4
Ntp12
Rp13
(dp14
S'price'
p15
F12.0
sS'subgroup'
p16
S'dsadj'
p17
sS'group'
p18
S'daskdjsd'
p19
sS'id'
p20
I5
sS'name'
p21
S'djsadsj'
p22
sbasg20
S'anuj'
p23
sS'noProducts'
p24
I1
sbs.