(dp0
S'anuj'
p1
ccopy_reg
_reconstructor
p2
(cclasses
Customer
p3
c__builtin__
object
p4
Ntp5
Rp6
(dp7
S'phNo'
p8
S'9876543421'
p9
sS'address'
p10
S'indore'
p11
sS'id'
p12
g1
sS'name'
p13
S'anuj'
p14
sbsS'bansal'
p15
g2
(g3
g4
Ntp16
Rp17
(dp18
g8
S'9876987689'
p19
sg10
S'bhopal'
p20
sg12
g15
sg13
S'bansal'
p21
sbs.