ccopy_reg
_reconstructor
p0
(cclasses
Customer
p1
c__builtin__
object
p2
Ntp3
Rp4
(dp5
S'phNo'
p6
S'123'
p7
sS'address'
p8
S'indore'
p9
sS'id'
p10
I1
sS'name'
p11
S'anuj'
p12
sb.ccopy_reg
_reconstructor
p0
(cclasses
Customer
p1
c__builtin__
object
p2
Ntp3
Rp4
(dp5
S'phNo'
p6
S'188'
p7
sS'address'
p8
S'bhopal'
p9
sS'id'
p10
I2
sS'name'
p11
S'anuj1'
p12
sb.