(dp0
S'anuj'
p1
ccopy_reg
_reconstructor
p2
(cclasses
Customer
p3
c__builtin__
object
p4
Ntp5
Rp6
(dp7
S'phNo'
p8
S'anuj'
p9
sS'address'
p10
S'anuj'
p11
sS'id'
p12
g1
sS'name'
p13
S'anuj'
p14
sbsS'3'
p15
g2
(g3
g4
Ntp16
Rp17
(dp18
g8
S'12344'
p19
sg10
S'pal'
p20
sg12
g15
sg13
S'ris'
p21
sbsS'bansal'
p22
g2
(g3
g4
Ntp23
Rp24
(dp25
g8
S'bansal'
p26
sg10
S'bsnal'
p27
sg12
g22
sg13
S'bansal'
p28
sbs.