(dp0
S'anuj'
p1
(lp2
ccopy_reg
_reconstructor
p3
(cclasses
Product
p4
c__builtin__
object
p5
Ntp6
Rp7
(dp8
S'price'
p9
F120.0
sS'subgroup'
p10
S'subcat1'
p11
sS'group'
p12
S'cat1'
p13
sS'id'
p14
I1
sS'name'
p15
S'soap'
p16
sbag3
(g4
g5
Ntp17
Rp18
(dp19
g9
F600.0
sg10
S'subcat3'
p20
sg12
S'cat4'
p21
sg14
I3
sg15
S'shoe'
p22
sbas.