(dp0
I1
ccopy_reg
_reconstructor
p1
(cclasses
Product
p2
c__builtin__
object
p3
Ntp4
Rp5
(dp6
S'price'
p7
F120.0
sS'subgroup'
p8
S'subcat1'
p9
sS'group'
p10
S'cat1'
p11
sS'id'
p12
I1
sS'name'
p13
S'soap'
p14
sbsI2
g1
(g2
g3
Ntp15
Rp16
(dp17
g7
F300.0
sg8
S'subcat2'
p18
sg10
S'cat2'
p19
sg12
I2
sg13
S'shirt'
p20
sbsI3
g1
(g2
g3
Ntp21
Rp22
(dp23
g7
F600.0
sg8
S'subcat3'
p24
sg10
S'cat4'
p25
sg12
I3
sg13
S'shoe'
p26
sbs.